#include <math.h>
#include <stdio.h>
#include <stdlib.h>
#include <string.h>
#include <iostream>
using namespace std;

/*
 * Filterredundantspace.cpp
 *
 *  Created on: 2012-11-21
 *      Author: ???
 */
int i,b;
int main(){
	char a[50];                  //???????
	cin.getline(a,50);           //??????????
	b=strlen(a);                 //????????
    for(i=0;i<b;i++){
		if(a[i]!=' ')  cout<<a[i];
		else  if(a[i]==' '&&a[i+1]!=' ')  cout<<' ';  //???????????????????????????????????????????????


	}




}
